target datalayout = "e-m:e-p270:32:32-p271:32:32-p272:64:64-i64:64-i128:128-f80:128-n8:16:32:64-S128"
target triple = "x86_64-pc-linux-gnu"

%struct.exr_chunk_info_t = type { i32, i32, i32, i32, i32, i8, i8, i8, i8, i64, i64, i64, i64, i64 }
%struct.exr_coding_channel_info_t = type { ptr, i32, i32, i32, i32, i8, i8, i16, i16, i16, i32, i32, %union.anon }
%union.anon = type { ptr }
%struct._exr_decode_pipeline = type { i64, ptr, i16, i16, i32, ptr, %struct.exr_chunk_info_t, i32, i32, i64, ptr, ptr, i64, ptr, i64, ptr, i64, ptr, i64, ptr, i64, ptr, i64, ptr, ptr, ptr, ptr, ptr, ptr, [5 x %struct.exr_coding_channel_info_t] }

; Function Attrs: nounwind uwtable
define internal i64 @compute_scratch_buffer_size(ptr noundef %0, i64 noundef %1) #0 {
  %3 = alloca ptr, align 8
  %4 = alloca i64, align 8
  %5 = alloca ptr, align 8
  %6 = alloca i32, align 4
  %7 = alloca i32, align 4
  %8 = alloca i64, align 8
  %9 = alloca i64, align 8
  %10 = alloca i32, align 4
  store ptr %0, ptr %3, align 8, !tbaa !47
  store i64 %1, ptr %4, align 8, !tbaa !19
  call void @llvm.lifetime.start.p0(i64 8, ptr %5) #5
  call void @llvm.lifetime.start.p0(i64 4, ptr %6) #5
  call void @llvm.lifetime.start.p0(i64 4, ptr %7) #5
  call void @llvm.lifetime.start.p0(i64 8, ptr %8) #5
  %11 = load i64, ptr %4, align 8, !tbaa !19
  store i64 %11, ptr %8, align 8, !tbaa !19
  call void @llvm.lifetime.start.p0(i64 8, ptr %9) #5
  store i64 0, ptr %9, align 8, !tbaa !19
  call void @llvm.lifetime.start.p0(i64 4, ptr %10) #5
  store i32 0, ptr %10, align 4, !tbaa !8
  br label %12

12:                                               ; preds = %65, %2
  %13 = load i32, ptr %10, align 4, !tbaa !8
  %14 = load ptr, ptr %3, align 8, !tbaa !47
  %15 = getelementptr inbounds nuw %struct._exr_decode_pipeline, ptr %14, i32 0, i32 2
  %16 = load i16, ptr %15, align 8, !tbaa !49
  %17 = sext i16 %16 to i32
  %18 = icmp slt i32 %13, %17
  br i1 %18, label %20, label %19

19:                                               ; preds = %12
  call void @llvm.lifetime.end.p0(i64 4, ptr %10) #5
  br label %68

20:                                               ; preds = %12
  %21 = load ptr, ptr %3, align 8, !tbaa !47
  %22 = getelementptr inbounds nuw %struct._exr_decode_pipeline, ptr %21, i32 0, i32 1
  %23 = load ptr, ptr %22, align 8, !tbaa !51
  %24 = load i32, ptr %10, align 4, !tbaa !8
  %25 = sext i32 %24 to i64
  %26 = getelementptr inbounds %struct.exr_coding_channel_info_t, ptr %23, i64 %25
  store ptr %26, ptr %5, align 8, !tbaa !27
  %27 = load ptr, ptr %5, align 8, !tbaa !27
  %28 = getelementptr inbounds nuw %struct.exr_coding_channel_info_t, ptr %27, i32 0, i32 2
  %29 = load i32, ptr %28, align 4, !tbaa !28
  store i32 %29, ptr %6, align 4, !tbaa !8
  %30 = load ptr, ptr %5, align 8, !tbaa !27
  %31 = getelementptr inbounds nuw %struct.exr_coding_channel_info_t, ptr %30, i32 0, i32 1
  %32 = load i32, ptr %31, align 8, !tbaa !30
  store i32 %32, ptr %7, align 4, !tbaa !8
  %33 = load i32, ptr %6, align 4, !tbaa !8
  %34 = srem i32 %33, 4
  %35 = icmp ne i32 %34, 0
  br i1 %35, label %36, label %42

36:                                               ; preds = %20
  %37 = load i32, ptr %6, align 4, !tbaa !8
  %38 = srem i32 %37, 4
  %39 = sub nsw i32 4, %38
  %40 = load i32, ptr %6, align 4, !tbaa !8
  %41 = add nsw i32 %40, %39
  store i32 %41, ptr %6, align 4, !tbaa !8
  br label %42

42:                                               ; preds = %36, %20
  %43 = load i32, ptr %7, align 4, !tbaa !8
  %44 = srem i32 %43, 4
  %45 = icmp ne i32 %44, 0
  br i1 %45, label %46, label %52

46:                                               ; preds = %42
  %47 = load i32, ptr %7, align 4, !tbaa !8
  %48 = srem i32 %47, 4
  %49 = sub nsw i32 4, %48
  %50 = load i32, ptr %7, align 4, !tbaa !8
  %51 = add nsw i32 %50, %49
  store i32 %51, ptr %7, align 4, !tbaa !8
  br label %52

52:                                               ; preds = %46, %42
  %53 = load i32, ptr %7, align 4, !tbaa !8
  %54 = sext i32 %53 to i64
  %55 = load i32, ptr %6, align 4, !tbaa !8
  %56 = sext i32 %55 to i64
  %57 = mul i64 %54, %56
  %58 = load ptr, ptr %5, align 8, !tbaa !27
  %59 = getelementptr inbounds nuw %struct.exr_coding_channel_info_t, ptr %58, i32 0, i32 6
  %60 = load i8, ptr %59, align 1, !tbaa !31
  %61 = sext i8 %60 to i64
  %62 = mul i64 %57, %61
  %63 = load i64, ptr %9, align 8, !tbaa !19
  %64 = add i64 %63, %62
  store i64 %64, ptr %9, align 8, !tbaa !19
  br label %65

65:                                               ; preds = %52
  %66 = load i32, ptr %10, align 4, !tbaa !8
  %67 = add nsw i32 %66, 1
  store i32 %67, ptr %10, align 4, !tbaa !8
  br label %12, !llvm.loop !52

68:                                               ; preds = %19
  %69 = load i64, ptr %9, align 8, !tbaa !19
  %70 = load i64, ptr %8, align 8, !tbaa !19
  %71 = icmp ugt i64 %69, %70
  br i1 %71, label %72, label %74

72:                                               ; preds = %68
  %73 = load i64, ptr %9, align 8, !tbaa !19
  store i64 %73, ptr %8, align 8, !tbaa !19
  br label %74

74:                                               ; preds = %72, %68
  %75 = load i64, ptr %8, align 8, !tbaa !19
  call void @llvm.lifetime.end.p0(i64 8, ptr %9) #5
  call void @llvm.lifetime.end.p0(i64 8, ptr %8) #5
  call void @llvm.lifetime.end.p0(i64 4, ptr %7) #5
  call void @llvm.lifetime.end.p0(i64 4, ptr %6) #5
  call void @llvm.lifetime.end.p0(i64 8, ptr %5) #5
  ret i64 %75
}

; Function Attrs: nounwind uwtable
define hidden i32 @internal_exr_undo_b44(ptr noundef %0, ptr noundef %1, i64 noundef %2, ptr noundef %3, i64 noundef %4) #0 {
  %6 = alloca i32, align 4
  %7 = alloca ptr, align 8
  %8 = alloca ptr, align 8
  %9 = alloca i64, align 8
  %10 = alloca ptr, align 8
  %11 = alloca i64, align 8
  %12 = alloca i32, align 4
  %13 = alloca i32, align 4
  store ptr %0, ptr %7, align 8, !tbaa !47
  store ptr %1, ptr %8, align 8, !tbaa !27
  store i64 %2, ptr %9, align 8, !tbaa !19
  store ptr %3, ptr %10, align 8, !tbaa !27
  store i64 %4, ptr %11, align 8, !tbaa !19
  call void @llvm.lifetime.start.p0(i64 4, ptr %12) #5
  %14 = load ptr, ptr %7, align 8, !tbaa !47
  %15 = load ptr, ptr %7, align 8, !tbaa !47
  %16 = getelementptr inbounds nuw %struct._exr_decode_pipeline, ptr %15, i32 0, i32 19
  %17 = load ptr, ptr %7, align 8, !tbaa !47
  %18 = getelementptr inbounds nuw %struct._exr_decode_pipeline, ptr %17, i32 0, i32 20
  %19 = load ptr, ptr %7, align 8, !tbaa !47
  %20 = load i64, ptr %11, align 8, !tbaa !19
  %21 = call i64 @compute_scratch_buffer_size(ptr noundef %19, i64 noundef %20)
  %22 = call i32 @internal_decode_alloc_buffer(ptr noundef %14, i32 noundef 3, ptr noundef %16, ptr noundef %18, i64 noundef %21)
  store i32 %22, ptr %12, align 4, !tbaa !8
  %23 = load i32, ptr %12, align 4, !tbaa !8
  %24 = icmp ne i32 %23, 0
  br i1 %24, label %25, label %27

25:                                               ; preds = %5
  %26 = load i32, ptr %12, align 4, !tbaa !8
  store i32 %26, ptr %6, align 4
  store i32 1, ptr %13, align 4
  br label %34

27:                                               ; preds = %5
  %28 = load ptr, ptr %7, align 8, !tbaa !47
  %29 = load ptr, ptr %8, align 8, !tbaa !27
  %30 = load i64, ptr %9, align 8, !tbaa !19
  %31 = load ptr, ptr %10, align 8, !tbaa !27
  %32 = load i64, ptr %11, align 8, !tbaa !19
  %33 = call i32 @uncompress_b44_impl(ptr noundef %28, ptr noundef %29, i64 noundef %30, ptr noundef %31, i64 noundef %32)
  store i32 %33, ptr %6, align 4
  store i32 1, ptr %13, align 4
  br label %34

34:                                               ; preds = %27, %25
  call void @llvm.lifetime.end.p0(i64 4, ptr %12) #5
  %35 = load i32, ptr %6, align 4
  ret i32 %35
}